; Function Attrs: mustprogress uwtable
define void @_ZN6duckdb12ColumnReader18AllocateCompressedEm(ptr noundef nonnull align 8 dereferenceable(544) initializes((104, 112)) %0, i64 noundef %1) local_unnamed_addr #3 align 2 {
  %3 = alloca %"class.duckdb::AllocatedData", align 8
  %4 = getelementptr inbounds nuw i8, ptr %0, i64 96
  %5 = getelementptr inbounds nuw i8, ptr %0, i64 16
  %6 = load ptr, ptr %5, align 8, !tbaa !106
  %7 = getelementptr inbounds nuw i8, ptr %6, i64 8
  %8 = load ptr, ptr %7, align 8, !tbaa !107
  %9 = getelementptr inbounds nuw i8, ptr %0, i64 104
  store i64 %1, ptr %9, align 8, !tbaa !322
  %10 = icmp eq i64 %1, 0
  br i1 %10, label %_ZN6duckdb16ResizeableBuffer6resizeERNS_9AllocatorEm.exit, label %11

11:                                               ; preds = %2
  %12 = getelementptr inbounds nuw i8, ptr %0, i64 136
  %13 = load i64, ptr %12, align 8, !tbaa !89
  %14 = icmp ugt i64 %1, %13
  br i1 %14, label %15, label %_ZN6duckdb16ResizeableBuffer6resizeERNS_9AllocatorEm.exit

15:                                               ; preds = %11
  %16 = tail call noundef i64 @_ZN6duckdb14NextPowerOfTwoEm(i64 noundef %1)
  store i64 %16, ptr %12, align 8, !tbaa !89
  %17 = getelementptr inbounds nuw i8, ptr %0, i64 112
  tail call void @_ZN6duckdb13AllocatedData5ResetEv(ptr noundef nonnull align 8 dereferenceable(24) %17)
  call void @llvm.lifetime.start.p0(i64 24, ptr nonnull %3) #28
  %18 = load i64, ptr %12, align 8, !tbaa !89
  %19 = tail call noundef ptr @_ZN6duckdb9Allocator12AllocateDataEm(ptr noundef nonnull align 8 dereferenceable(32) %8, i64 noundef %18), !noalias !364
  call void @_ZN6duckdb13AllocatedDataC1ERNS_9AllocatorEPhm(ptr noundef nonnull align 8 dereferenceable(24) %3, ptr noundef nonnull align 8 dereferenceable(32) %8, ptr noundef %19, i64 noundef %18)
  %20 = call noundef nonnull align 8 dereferenceable(24) ptr @_ZN6duckdb13AllocatedDataaSEOS0_(ptr noundef nonnull align 8 dereferenceable(24) %17, ptr noundef nonnull align 8 dereferenceable(24) %3) #28
  call void @_ZN6duckdb13AllocatedDataD1Ev(ptr noundef nonnull align 8 dereferenceable(24) %3) #28
  call void @llvm.lifetime.end.p0(i64 24, ptr nonnull %3) #28
  %21 = getelementptr inbounds nuw i8, ptr %0, i64 120
  %22 = load ptr, ptr %21, align 8, !tbaa !348
  store ptr %22, ptr %4, align 8, !tbaa !318
  br label %_ZN6duckdb16ResizeableBuffer6resizeERNS_9AllocatorEm.exit

_ZN6duckdb16ResizeableBuffer6resizeERNS_9AllocatorEm.exit: ; preds = %2, %11, %15
  ret void
}